target datalayout = "e-m:e-p270:32:32-p271:32:32-p272:64:64-i64:64-i128:128-f80:128-n8:16:32:64-S128"
target triple = "x86_64-pc-linux-gnu"

%struct.security_mark_t = type { ptr, ptr }
%struct.bp_block_canonical_t = type { i64, ptr, ptr, ptr, i64, i64, ptr, ptr, ptr, %struct.security_mark_t }

@.str = private unnamed_addr constant [29 x i8] c"%s:%u: failed assertion \22%s\22\00", align 1
@.str.1 = private unnamed_addr constant [30 x i8] c"epan/dissectors/packet-bpv7.c\00", align 1
@.str.339 = private unnamed_addr constant [7 x i8] c"a && b\00", align 1

; Function Attrs: nounwind null_pointer_is_valid sspstrong uwtable
define internal i32 @blocktype_order(ptr noundef %0) #0 {
  %2 = alloca i32, align 4
  %3 = alloca ptr, align 8
  store ptr %0, ptr %3, align 8
  %4 = load ptr, ptr %3, align 8
  %5 = getelementptr inbounds nuw %struct.bp_block_canonical_t, ptr %4, i32 0, i32 2
  %6 = load ptr, ptr %5, align 8
  %7 = icmp ne ptr %6, null
  br i1 %7, label %8, label %17

8:                                                ; preds = %1
  %9 = load ptr, ptr %3, align 8
  %10 = getelementptr inbounds nuw %struct.bp_block_canonical_t, ptr %9, i32 0, i32 2
  %11 = load ptr, ptr %10, align 8
  %12 = load i64, ptr %11, align 8
  switch i64 %12, label %16 [
    i64 12, label %13
    i64 11, label %14
    i64 1, label %15
  ]

13:                                               ; preds = %8
  store i32 -2, ptr %2, align 4
  br label %18

14:                                               ; preds = %8
  store i32 -1, ptr %2, align 4
  br label %18

15:                                               ; preds = %8
  store i32 1, ptr %2, align 4
  br label %18

16:                                               ; preds = %8
  store i32 0, ptr %2, align 4
  br label %18

17:                                               ; preds = %1
  store i32 0, ptr %2, align 4
  br label %18

18:                                               ; preds = %17, %16, %15, %14, %13
  %19 = load i32, ptr %2, align 4
  ret i32 %19
}

; Function Attrs: null_pointer_is_valid sspstrong uwtable
define internal i32 @block_dissect_sort(ptr noundef %0, ptr noundef %1) #2 {
  %3 = alloca i32, align 4
  %4 = alloca ptr, align 8
  %5 = alloca ptr, align 8
  %6 = alloca ptr, align 8
  %7 = alloca ptr, align 8
  %8 = alloca i32, align 4
  %9 = alloca i32, align 4
  %10 = alloca i32, align 4
  store ptr %0, ptr %4, align 8
  store ptr %1, ptr %5, align 8
  %11 = load ptr, ptr %4, align 8
  %12 = icmp ne ptr %11, null
  br i1 %12, label %13, label %17

13:                                               ; preds = %2
  %14 = load ptr, ptr %5, align 8
  %15 = icmp ne ptr %14, null
  br i1 %15, label %16, label %17

16:                                               ; preds = %13
  br label %19

17:                                               ; preds = %13, %2
  call void (ptr, ...) @proto_report_dissector_bug(ptr noundef @.str, ptr noundef @.str.1, i32 noundef 1545, ptr noundef @.str.339) #21
  unreachable

18:                                               ; No predecessors!
  br label %19

19:                                               ; preds = %18, %16
  call void @llvm.lifetime.start.p0(i64 8, ptr %6) #18
  %20 = load ptr, ptr %4, align 8
  %21 = load ptr, ptr %20, align 8
  store ptr %21, ptr %6, align 8
  call void @llvm.lifetime.start.p0(i64 8, ptr %7) #18
  %22 = load ptr, ptr %5, align 8
  %23 = load ptr, ptr %22, align 8
  store ptr %23, ptr %7, align 8
  call void @llvm.lifetime.start.p0(i64 4, ptr %8) #18
  %24 = load ptr, ptr %6, align 8
  %25 = call i32 @blocktype_order(ptr noundef %24)
  store i32 %25, ptr %8, align 4
  call void @llvm.lifetime.start.p0(i64 4, ptr %9) #18
  %26 = load ptr, ptr %7, align 8
  %27 = call i32 @blocktype_order(ptr noundef %26)
  store i32 %27, ptr %9, align 4
  %28 = load i32, ptr %8, align 4
  %29 = load i32, ptr %9, align 4
  %30 = icmp slt i32 %28, %29
  br i1 %30, label %31, label %32

31:                                               ; preds = %19
  store i32 -1, ptr %3, align 4
  store i32 1, ptr %10, align 4
  br label %44

32:                                               ; preds = %19
  %33 = load i32, ptr %8, align 4
  %34 = load i32, ptr %9, align 4
  %35 = icmp sgt i32 %33, %34
  br i1 %35, label %36, label %37

36:                                               ; preds = %32
  store i32 1, ptr %3, align 4
  store i32 1, ptr %10, align 4
  br label %44

37:                                               ; preds = %32
  br label %38

38:                                               ; preds = %37
  %39 = load ptr, ptr %6, align 8
  %40 = getelementptr inbounds nuw %struct.bp_block_canonical_t, ptr %39, i32 0, i32 0
  %41 = load ptr, ptr %7, align 8
  %42 = getelementptr inbounds nuw %struct.bp_block_canonical_t, ptr %41, i32 0, i32 0
  %43 = call i32 @g_int_equal(ptr noundef %40, ptr noundef %42)
  store i32 %43, ptr %3, align 4
  store i32 1, ptr %10, align 4
  br label %44

44:                                               ; preds = %38, %36, %31
  call void @llvm.lifetime.end.p0(i64 4, ptr %9) #18
  call void @llvm.lifetime.end.p0(i64 4, ptr %8) #18
  call void @llvm.lifetime.end.p0(i64 8, ptr %7) #18
  call void @llvm.lifetime.end.p0(i64 8, ptr %6) #18
  %45 = load i32, ptr %3, align 4
  ret i32 %45
}