; Function Attrs: null_pointer_is_valid sspstrong uwtable
define internal i32 @block_dissect_sort(ptr noundef readonly captures(address_is_null) %0, ptr noundef readonly captures(address_is_null) %1) #2 {
  %3 = icmp ne ptr %0, null
  %4 = icmp ne ptr %1, null
  %or.cond = and i1 %3, %4
  br i1 %or.cond, label %6, label %5

5:                                                ; preds = %2
  tail call void (ptr, ...) @proto_report_dissector_bug(ptr noundef nonnull @.str, ptr noundef nonnull @.str.1, i32 noundef 1545, ptr noundef nonnull @.str.339) #17
  unreachable

6:                                                ; preds = %2
  %7 = load ptr, ptr %0, align 8
  %8 = load ptr, ptr %1, align 8
  %9 = getelementptr i8, ptr %7, i64 16
  %.val = load ptr, ptr %9, align 8
  %.not.i = icmp eq ptr %.val, null
  br i1 %.not.i, label %blocktype_order.exit, label %10

10:                                               ; preds = %6
  %11 = load i64, ptr %.val, align 8
  switch i64 %11, label %14 [
    i64 12, label %blocktype_order.exit
    i64 11, label %12
    i64 1, label %13
  ]

12:                                               ; preds = %10
  br label %blocktype_order.exit

13:                                               ; preds = %10
  br label %blocktype_order.exit

14:                                               ; preds = %10
  br label %blocktype_order.exit

blocktype_order.exit:                             ; preds = %6, %10, %12, %13, %14
  %.0.i = phi i32 [ 0, %14 ], [ 1, %13 ], [ -1, %12 ], [ -2, %10 ], [ 0, %6 ]
  %15 = getelementptr i8, ptr %8, i64 16
  %.val17 = load ptr, ptr %15, align 8
  %.not.i18 = icmp eq ptr %.val17, null
  br i1 %.not.i18, label %blocktype_order.exit20, label %16

16:                                               ; preds = %blocktype_order.exit
  %17 = load i64, ptr %.val17, align 8
  switch i64 %17, label %20 [
    i64 12, label %blocktype_order.exit20
    i64 11, label %18
    i64 1, label %19
  ]

18:                                               ; preds = %16
  br label %blocktype_order.exit20

19:                                               ; preds = %16
  br label %blocktype_order.exit20

20:                                               ; preds = %16
  br label %blocktype_order.exit20

blocktype_order.exit20:                           ; preds = %blocktype_order.exit, %16, %18, %19, %20
  %.0.i19 = phi i32 [ 0, %20 ], [ 1, %19 ], [ -1, %18 ], [ -2, %16 ], [ 0, %blocktype_order.exit ]
  %21 = icmp slt i32 %.0.i, %.0.i19
  br i1 %21, label %26, label %22

22:                                               ; preds = %blocktype_order.exit20
  %23 = icmp sgt i32 %.0.i, %.0.i19
  br i1 %23, label %26, label %24

24:                                               ; preds = %22
  %25 = tail call i32 @g_int_equal(ptr noundef %7, ptr noundef %8)
  br label %26

26:                                               ; preds = %22, %blocktype_order.exit20, %24
  %.0 = phi i32 [ %25, %24 ], [ -1, %blocktype_order.exit20 ], [ 1, %22 ]
  ret i32 %.0
}